; Function Attrs: mustprogress nounwind uwtable
define void @_ZN5Ipopt10JournalistD2Ev(ptr nocapture noundef nonnull align 8 dereferenceable(40) %0) unnamed_addr #1 align 2 personality ptr @__gxx_personality_v0 {
  store ptr getelementptr inbounds ({ [15 x ptr] }, ptr @_ZTVN5Ipopt10JournalistE, i64 0, i32 0, i64 2), ptr %0, align 8
  %2 = getelementptr inbounds i8, ptr %0, i64 16
  %3 = load ptr, ptr %2, align 8
  %4 = getelementptr inbounds i8, ptr %0, i64 24
  %5 = load ptr, ptr %4, align 8
  %.not.i.i = icmp eq ptr %5, %3
  br i1 %.not.i.i, label %_ZSt8_DestroyIPN5Ipopt8SmartPtrINS0_7JournalEEES3_EvT_S5_RSaIT0_E.exit.i, label %.lr.ph.i.i.i.i.i

.lr.ph.i.i.i.i.i:                                 ; preds = %1, %_ZSt8_DestroyIN5Ipopt8SmartPtrINS0_7JournalEEEEvPT_.exit.i.i.i.i.i
  %.05.i.i.i.i.i = phi ptr [ %19, %_ZSt8_DestroyIN5Ipopt8SmartPtrINS0_7JournalEEEEvPT_.exit.i.i.i.i.i ], [ %3, %1 ]
  %6 = load ptr, ptr %.05.i.i.i.i.i, align 8
  %.not.i.i.i.i.i.i.i.i = icmp eq ptr %6, null
  br i1 %.not.i.i.i.i.i.i.i.i, label %_ZSt8_DestroyIN5Ipopt8SmartPtrINS0_7JournalEEEEvPT_.exit.i.i.i.i.i, label %7

7:                                                ; preds = %.lr.ph.i.i.i.i.i
  %8 = getelementptr inbounds i8, ptr %6, i64 8
  %9 = load i32, ptr %8, align 8
  %10 = add nsw i32 %9, -1
  store i32 %10, ptr %8, align 8
  %11 = load ptr, ptr %.05.i.i.i.i.i, align 8
  %12 = getelementptr inbounds i8, ptr %11, i64 8
  %13 = load i32, ptr %12, align 8
  %14 = icmp eq i32 %13, 0
  br i1 %14, label %15, label %_ZSt8_DestroyIN5Ipopt8SmartPtrINS0_7JournalEEEEvPT_.exit.i.i.i.i.i

15:                                               ; preds = %7
  %16 = load ptr, ptr %11, align 8
  %17 = getelementptr inbounds i8, ptr %16, i64 8
  %18 = load ptr, ptr %17, align 8
  tail call void %18(ptr noundef nonnull align 8 dereferenceable(176) %11) #20
  br label %_ZSt8_DestroyIN5Ipopt8SmartPtrINS0_7JournalEEEEvPT_.exit.i.i.i.i.i

_ZSt8_DestroyIN5Ipopt8SmartPtrINS0_7JournalEEEEvPT_.exit.i.i.i.i.i: ; preds = %15, %7, %.lr.ph.i.i.i.i.i
  %19 = getelementptr inbounds i8, ptr %.05.i.i.i.i.i, i64 8
  %.not.i.i.i.i.i = icmp eq ptr %19, %5
  br i1 %.not.i.i.i.i.i, label %_ZNSt6vectorIN5Ipopt8SmartPtrINS0_7JournalEEESaIS3_EE5clearEv.exit, label %.lr.ph.i.i.i.i.i, !llvm.loop !4

_ZNSt6vectorIN5Ipopt8SmartPtrINS0_7JournalEEESaIS3_EE5clearEv.exit: ; preds = %_ZSt8_DestroyIN5Ipopt8SmartPtrINS0_7JournalEEEEvPT_.exit.i.i.i.i.i
  store ptr %3, ptr %4, align 8
  %.pre = load ptr, ptr %2, align 8
  %.not4.i.i.i.i = icmp eq ptr %.pre, %3
  br i1 %.not4.i.i.i.i, label %_ZSt8_DestroyIPN5Ipopt8SmartPtrINS0_7JournalEEES3_EvT_S5_RSaIT0_E.exit.i, label %.lr.ph.i.i.i.i

.lr.ph.i.i.i.i:                                   ; preds = %_ZNSt6vectorIN5Ipopt8SmartPtrINS0_7JournalEEESaIS3_EE5clearEv.exit, %_ZSt8_DestroyIN5Ipopt8SmartPtrINS0_7JournalEEEEvPT_.exit.i.i.i.i
  %.05.i.i.i.i = phi ptr [ %33, %_ZSt8_DestroyIN5Ipopt8SmartPtrINS0_7JournalEEEEvPT_.exit.i.i.i.i ], [ %.pre, %_ZNSt6vectorIN5Ipopt8SmartPtrINS0_7JournalEEESaIS3_EE5clearEv.exit ]
  %20 = load ptr, ptr %.05.i.i.i.i, align 8
  %.not.i.i.i.i.i.i.i = icmp eq ptr %20, null
  br i1 %.not.i.i.i.i.i.i.i, label %_ZSt8_DestroyIN5Ipopt8SmartPtrINS0_7JournalEEEEvPT_.exit.i.i.i.i, label %21

21:                                               ; preds = %.lr.ph.i.i.i.i
  %22 = getelementptr inbounds i8, ptr %20, i64 8
  %23 = load i32, ptr %22, align 8
  %24 = add nsw i32 %23, -1
  store i32 %24, ptr %22, align 8
  %25 = load ptr, ptr %.05.i.i.i.i, align 8
  %26 = getelementptr inbounds i8, ptr %25, i64 8
  %27 = load i32, ptr %26, align 8
  %28 = icmp eq i32 %27, 0
  br i1 %28, label %29, label %_ZSt8_DestroyIN5Ipopt8SmartPtrINS0_7JournalEEEEvPT_.exit.i.i.i.i

29:                                               ; preds = %21
  %30 = load ptr, ptr %25, align 8
  %31 = getelementptr inbounds i8, ptr %30, i64 8
  %32 = load ptr, ptr %31, align 8
  tail call void %32(ptr noundef nonnull align 8 dereferenceable(176) %25) #20
  br label %_ZSt8_DestroyIN5Ipopt8SmartPtrINS0_7JournalEEEEvPT_.exit.i.i.i.i

_ZSt8_DestroyIN5Ipopt8SmartPtrINS0_7JournalEEEEvPT_.exit.i.i.i.i: ; preds = %29, %21, %.lr.ph.i.i.i.i
  %33 = getelementptr inbounds i8, ptr %.05.i.i.i.i, i64 8
  %.not.i.i.i.i = icmp eq ptr %33, %3
  br i1 %.not.i.i.i.i, label %_ZSt8_DestroyIPN5Ipopt8SmartPtrINS0_7JournalEEES3_EvT_S5_RSaIT0_E.exitthread-pre-split.i, label %.lr.ph.i.i.i.i, !llvm.loop !4

_ZSt8_DestroyIPN5Ipopt8SmartPtrINS0_7JournalEEES3_EvT_S5_RSaIT0_E.exitthread-pre-split.i: ; preds = %_ZSt8_DestroyIN5Ipopt8SmartPtrINS0_7JournalEEEEvPT_.exit.i.i.i.i
  %.pr.i = load ptr, ptr %2, align 8
  br label %_ZSt8_DestroyIPN5Ipopt8SmartPtrINS0_7JournalEEES3_EvT_S5_RSaIT0_E.exit.i

_ZSt8_DestroyIPN5Ipopt8SmartPtrINS0_7JournalEEES3_EvT_S5_RSaIT0_E.exit.i: ; preds = %1, %_ZSt8_DestroyIPN5Ipopt8SmartPtrINS0_7JournalEEES3_EvT_S5_RSaIT0_E.exitthread-pre-split.i, %_ZNSt6vectorIN5Ipopt8SmartPtrINS0_7JournalEEESaIS3_EE5clearEv.exit
  %34 = phi ptr [ %.pr.i, %_ZSt8_DestroyIPN5Ipopt8SmartPtrINS0_7JournalEEES3_EvT_S5_RSaIT0_E.exitthread-pre-split.i ], [ %3, %_ZNSt6vectorIN5Ipopt8SmartPtrINS0_7JournalEEESaIS3_EE5clearEv.exit ], [ %3, %1 ]
  %.not.i.i.i = icmp eq ptr %34, null
  br i1 %.not.i.i.i, label %_ZNSt6vectorIN5Ipopt8SmartPtrINS0_7JournalEEESaIS3_EED2Ev.exit, label %35

35:                                               ; preds = %_ZSt8_DestroyIPN5Ipopt8SmartPtrINS0_7JournalEEES3_EvT_S5_RSaIT0_E.exit.i
  tail call void @_ZdlPv(ptr noundef nonnull %34) #21
  br label %_ZNSt6vectorIN5Ipopt8SmartPtrINS0_7JournalEEESaIS3_EED2Ev.exit

_ZNSt6vectorIN5Ipopt8SmartPtrINS0_7JournalEEESaIS3_EED2Ev.exit: ; preds = %_ZSt8_DestroyIPN5Ipopt8SmartPtrINS0_7JournalEEES3_EvT_S5_RSaIT0_E.exit.i, %35
  store ptr getelementptr inbounds ({ [4 x ptr] }, ptr @_ZTVN5Ipopt16ReferencedObjectE, i64 0, i32 0, i64 2), ptr %0, align 8
  ret void
}